target datalayout = "e-m:e-p270:32:32-p271:32:32-p272:64:64-i64:64-i128:128-f80:128-n8:16:32:64-S128"
target triple = "x86_64-pc-linux-gnu"

@ff_vvc_lfnst_tr_set_index = external constant [95 x i8], align 16
@ff_vvc_lfnst_8x8 = external constant [4 x [2 x [16 x [48 x i8]]]], align 16
@ff_vvc_lfnst_4x4 = external constant [4 x [2 x [16 x [16 x i8]]]], align 16

; Function Attrs: alwaysinline nounwind willreturn memory(none) uwtable
define internal i32 @av_clip_intp2_c(i32 noundef %0, i32 noundef %1) #2 {
  %3 = alloca i32, align 4
  %4 = alloca i32, align 4
  %5 = alloca i32, align 4
  store i32 %0, ptr %4, align 4, !tbaa !11
  store i32 %1, ptr %5, align 4, !tbaa !11
  %6 = load i32, ptr %4, align 4, !tbaa !11
  %7 = load i32, ptr %5, align 4, !tbaa !11
  %8 = shl i32 1, %7
  %9 = add i32 %6, %8
  %10 = load i32, ptr %5, align 4, !tbaa !11
  %11 = shl i32 2, %10
  %12 = sub i32 %11, 1
  %13 = xor i32 %12, -1
  %14 = and i32 %9, %13
  %15 = icmp ne i32 %14, 0
  br i1 %15, label %16, label %23

16:                                               ; preds = %2
  %17 = load i32, ptr %4, align 4, !tbaa !11
  %18 = ashr i32 %17, 31
  %19 = load i32, ptr %5, align 4, !tbaa !11
  %20 = shl i32 1, %19
  %21 = sub nsw i32 %20, 1
  %22 = xor i32 %18, %21
  store i32 %22, ptr %3, align 4
  br label %25

23:                                               ; preds = %2
  %24 = load i32, ptr %4, align 4, !tbaa !11
  store i32 %24, ptr %3, align 4
  br label %25

25:                                               ; preds = %23, %16
  %26 = load i32, ptr %3, align 4
  ret i32 %26
}

; Function Attrs: nounwind uwtable
define void @ff_vvc_inv_lfnst_1d(ptr noundef %0, ptr noundef %1, i32 noundef %2, i32 noundef %3, i32 noundef %4, i32 noundef %5, i32 noundef %6) #0 {
  %8 = alloca ptr, align 8
  %9 = alloca ptr, align 8
  %10 = alloca i32, align 4
  %11 = alloca i32, align 4
  %12 = alloca i32, align 4
  %13 = alloca i32, align 4
  %14 = alloca i32, align 4
  %15 = alloca i32, align 4
  %16 = alloca ptr, align 8
  %17 = alloca i32, align 4
  %18 = alloca i32, align 4
  %19 = alloca i32, align 4
  %20 = alloca i32, align 4
  store ptr %0, ptr %8, align 8, !tbaa !4
  store ptr %1, ptr %9, align 8, !tbaa !4
  store i32 %2, ptr %10, align 4, !tbaa !11
  store i32 %3, ptr %11, align 4, !tbaa !11
  store i32 %4, ptr %12, align 4, !tbaa !11
  store i32 %5, ptr %13, align 4, !tbaa !11
  store i32 %6, ptr %14, align 4, !tbaa !11
  call void @llvm.lifetime.start.p0(i64 4, ptr %15) #3
  %21 = load i32, ptr %12, align 4, !tbaa !11
  %22 = icmp slt i32 %21, 0
  br i1 %22, label %23, label %24

23:                                               ; preds = %7
  br label %30

24:                                               ; preds = %7
  %25 = load i32, ptr %12, align 4, !tbaa !11
  %26 = sext i32 %25 to i64
  %27 = getelementptr inbounds [95 x i8], ptr @ff_vvc_lfnst_tr_set_index, i64 0, i64 %26
  %28 = load i8, ptr %27, align 1, !tbaa !15
  %29 = zext i8 %28 to i32
  br label %30

30:                                               ; preds = %24, %23
  %31 = phi i32 [ 1, %23 ], [ %29, %24 ]
  store i32 %31, ptr %15, align 4, !tbaa !11
  call void @llvm.lifetime.start.p0(i64 8, ptr %16) #3
  %32 = load i32, ptr %11, align 4, !tbaa !11
  %33 = icmp sgt i32 %32, 16
  br i1 %33, label %34, label %44

34:                                               ; preds = %30
  %35 = load i32, ptr %15, align 4, !tbaa !11
  %36 = sext i32 %35 to i64
  %37 = getelementptr inbounds [4 x [2 x [16 x [48 x i8]]]], ptr @ff_vvc_lfnst_8x8, i64 0, i64 %36
  %38 = load i32, ptr %13, align 4, !tbaa !11
  %39 = sub nsw i32 %38, 1
  %40 = sext i32 %39 to i64
  %41 = getelementptr inbounds [2 x [16 x [48 x i8]]], ptr %37, i64 0, i64 %40
  %42 = getelementptr inbounds [16 x [48 x i8]], ptr %41, i64 0, i64 0
  %43 = getelementptr inbounds [48 x i8], ptr %42, i64 0, i64 0
  br label %54

44:                                               ; preds = %30
  %45 = load i32, ptr %15, align 4, !tbaa !11
  %46 = sext i32 %45 to i64
  %47 = getelementptr inbounds [4 x [2 x [16 x [16 x i8]]]], ptr @ff_vvc_lfnst_4x4, i64 0, i64 %46
  %48 = load i32, ptr %13, align 4, !tbaa !11
  %49 = sub nsw i32 %48, 1
  %50 = sext i32 %49 to i64
  %51 = getelementptr inbounds [2 x [16 x [16 x i8]]], ptr %47, i64 0, i64 %50
  %52 = getelementptr inbounds [16 x [16 x i8]], ptr %51, i64 0, i64 0
  %53 = getelementptr inbounds [16 x i8], ptr %52, i64 0, i64 0
  br label %54

54:                                               ; preds = %44, %34
  %55 = phi ptr [ %43, %34 ], [ %53, %44 ]
  store ptr %55, ptr %16, align 8, !tbaa !13
  call void @llvm.lifetime.start.p0(i64 4, ptr %17) #3
  store i32 0, ptr %17, align 4, !tbaa !11
  br label %56

56:                                               ; preds = %97, %54
  %57 = load i32, ptr %17, align 4, !tbaa !11
  %58 = load i32, ptr %11, align 4, !tbaa !11
  %59 = icmp slt i32 %57, %58
  br i1 %59, label %61, label %60

60:                                               ; preds = %56
  store i32 2, ptr %18, align 4
  call void @llvm.lifetime.end.p0(i64 4, ptr %17) #3
  br label %102

61:                                               ; preds = %56
  call void @llvm.lifetime.start.p0(i64 4, ptr %19) #3
  store i32 0, ptr %19, align 4, !tbaa !11
  call void @llvm.lifetime.start.p0(i64 4, ptr %20) #3
  store i32 0, ptr %20, align 4, !tbaa !11
  br label %62

62:                                               ; preds = %84, %61
  %63 = load i32, ptr %20, align 4, !tbaa !11
  %64 = load i32, ptr %10, align 4, !tbaa !11
  %65 = icmp slt i32 %63, %64
  br i1 %65, label %67, label %66

66:                                               ; preds = %62
  store i32 5, ptr %18, align 4
  call void @llvm.lifetime.end.p0(i64 4, ptr %20) #3
  br label %87

67:                                               ; preds = %62
  %68 = load ptr, ptr %9, align 8, !tbaa !4
  %69 = load i32, ptr %20, align 4, !tbaa !11
  %70 = sext i32 %69 to i64
  %71 = getelementptr inbounds i32, ptr %68, i64 %70
  %72 = load i32, ptr %71, align 4, !tbaa !11
  %73 = load ptr, ptr %16, align 8, !tbaa !13
  %74 = load i32, ptr %20, align 4, !tbaa !11
  %75 = load i32, ptr %11, align 4, !tbaa !11
  %76 = mul nsw i32 %74, %75
  %77 = sext i32 %76 to i64
  %78 = getelementptr inbounds i8, ptr %73, i64 %77
  %79 = load i8, ptr %78, align 1, !tbaa !15
  %80 = sext i8 %79 to i32
  %81 = mul nsw i32 %72, %80
  %82 = load i32, ptr %19, align 4, !tbaa !11
  %83 = add nsw i32 %82, %81
  store i32 %83, ptr %19, align 4, !tbaa !11
  br label %84

84:                                               ; preds = %67
  %85 = load i32, ptr %20, align 4, !tbaa !11
  %86 = add nsw i32 %85, 1
  store i32 %86, ptr %20, align 4, !tbaa !11
  br label %62, !llvm.loop !16

87:                                               ; preds = %66
  %88 = load i32, ptr %19, align 4, !tbaa !11
  %89 = add nsw i32 %88, 64
  %90 = ashr i32 %89, 7
  %91 = load i32, ptr %14, align 4, !tbaa !11
  %92 = call i32 @av_clip_intp2_c(i32 noundef %90, i32 noundef %91) #4
  %93 = load ptr, ptr %8, align 8, !tbaa !4
  %94 = load i32, ptr %17, align 4, !tbaa !11
  %95 = sext i32 %94 to i64
  %96 = getelementptr inbounds i32, ptr %93, i64 %95
  store i32 %92, ptr %96, align 4, !tbaa !11
  call void @llvm.lifetime.end.p0(i64 4, ptr %19) #3
  br label %97

97:                                               ; preds = %87
  %98 = load i32, ptr %17, align 4, !tbaa !11
  %99 = add nsw i32 %98, 1
  store i32 %99, ptr %17, align 4, !tbaa !11
  %100 = load ptr, ptr %16, align 8, !tbaa !13
  %101 = getelementptr inbounds nuw i8, ptr %100, i32 1
  store ptr %101, ptr %16, align 8, !tbaa !13
  br label %56, !llvm.loop !18

102:                                              ; preds = %60
  call void @llvm.lifetime.end.p0(i64 8, ptr %16) #3
  call void @llvm.lifetime.end.p0(i64 4, ptr %15) #3
  ret void
}